target datalayout = "e-m:e-p270:32:32-p271:32:32-p272:64:64-i64:64-i128:128-f80:128-n8:16:32:64-S128"
target triple = "x86_64-pc-linux-gnu"

%struct.PlannerInfo = type { i32, ptr, ptr, i32, ptr, ptr, ptr, ptr, i32, ptr, ptr, ptr, ptr, ptr, ptr, ptr, ptr, i32, ptr, ptr, ptr, ptr, ptr, i8, ptr, ptr, ptr, ptr, ptr, i32, ptr, ptr, ptr, ptr, ptr, ptr, ptr, i32, ptr, ptr, ptr, i32, ptr, ptr, ptr, ptr, ptr, ptr, [8 x ptr], [8 x ptr], ptr, ptr, ptr, ptr, ptr, ptr, ptr, double, double, double, i32, i8, i8, i8, i8, i8, i8, i8, i32, ptr, ptr, i32, i8, i8, i32, ptr, ptr, ptr, ptr, ptr, ptr, i8, ptr }
%struct.PlannerGlobal = type { i32, ptr, ptr, ptr, ptr, ptr, ptr, ptr, ptr, ptr, ptr, ptr, ptr, ptr, ptr, ptr, ptr, i32, i32, i32, i8, i8, i8, i8, i8, ptr }

; Function Attrs: nounwind uwtable
define dso_local void @extract_query_dependencies(ptr noundef %0, ptr noundef %1, ptr noundef %2, ptr noundef %3) #0 {
  %5 = alloca ptr, align 8
  %6 = alloca ptr, align 8
  %7 = alloca ptr, align 8
  %8 = alloca ptr, align 8
  %9 = alloca %struct.PlannerGlobal, align 8
  %10 = alloca %struct.PlannerInfo, align 8
  %11 = alloca ptr, align 8
  %12 = alloca i32, align 4
  %13 = alloca i64, align 8
  %14 = alloca ptr, align 8
  %15 = alloca ptr, align 8
  %16 = alloca ptr, align 8
  %17 = alloca i32, align 4
  %18 = alloca i64, align 8
  %19 = alloca ptr, align 8
  %20 = alloca ptr, align 8
  store ptr %0, ptr %5, align 8
  store ptr %1, ptr %6, align 8
  store ptr %2, ptr %7, align 8
  store ptr %3, ptr %8, align 8
  call void @llvm.lifetime.start.p0(i64 168, ptr %9) #8
  call void @llvm.lifetime.start.p0(i64 704, ptr %10) #8
  br label %21

21:                                               ; preds = %4
  call void @llvm.lifetime.start.p0(i64 8, ptr %11) #8
  store ptr %9, ptr %11, align 8
  call void @llvm.lifetime.start.p0(i64 4, ptr %12) #8
  store i32 0, ptr %12, align 4
  call void @llvm.lifetime.start.p0(i64 8, ptr %13) #8
  store i64 168, ptr %13, align 8
  %22 = load ptr, ptr %11, align 8
  %23 = ptrtoint ptr %22 to i64
  %24 = and i64 %23, 7
  %25 = icmp eq i64 %24, 0
  br i1 %25, label %26, label %49

26:                                               ; preds = %21
  %27 = load i64, ptr %13, align 8
  %28 = and i64 %27, 7
  %29 = icmp eq i64 %28, 0
  br i1 %29, label %30, label %49

30:                                               ; preds = %26
  %31 = load i32, ptr %12, align 4
  %32 = icmp eq i32 %31, 0
  br i1 %32, label %33, label %49

33:                                               ; preds = %30
  %34 = load i64, ptr %13, align 8
  %35 = icmp ule i64 %34, 1024
  br i1 %35, label %36, label %49

36:                                               ; preds = %33
  call void @llvm.lifetime.start.p0(i64 8, ptr %14) #8
  %37 = load ptr, ptr %11, align 8
  store ptr %37, ptr %14, align 8
  call void @llvm.lifetime.start.p0(i64 8, ptr %15) #8
  %38 = load ptr, ptr %14, align 8
  %39 = load i64, ptr %13, align 8
  %40 = getelementptr inbounds nuw i8, ptr %38, i64 %39
  store ptr %40, ptr %15, align 8
  br label %41

41:                                               ; preds = %45, %36
  %42 = load ptr, ptr %14, align 8
  %43 = load ptr, ptr %15, align 8
  %44 = icmp ult ptr %42, %43
  br i1 %44, label %45, label %48

45:                                               ; preds = %41
  %46 = load ptr, ptr %14, align 8
  %47 = getelementptr inbounds nuw i64, ptr %46, i32 1
  store ptr %47, ptr %14, align 8
  store i64 0, ptr %46, align 8
  br label %41, !llvm.loop !23

48:                                               ; preds = %41
  call void @llvm.lifetime.end.p0(i64 8, ptr %15) #8
  call void @llvm.lifetime.end.p0(i64 8, ptr %14) #8
  br label %54

49:                                               ; preds = %33, %30, %26, %21
  %50 = load ptr, ptr %11, align 8
  %51 = load i32, ptr %12, align 4
  %52 = trunc i32 %51 to i8
  %53 = load i64, ptr %13, align 8
  call void @llvm.memset.p0.i64(ptr align 1 %50, i8 %52, i64 %53, i1 false)
  br label %54

54:                                               ; preds = %49, %48
  call void @llvm.lifetime.end.p0(i64 8, ptr %13) #8
  call void @llvm.lifetime.end.p0(i64 4, ptr %12) #8
  call void @llvm.lifetime.end.p0(i64 8, ptr %11) #8
  br label %55

55:                                               ; preds = %54
  br label %56

56:                                               ; preds = %55
  %57 = getelementptr inbounds nuw %struct.PlannerGlobal, ptr %9, i32 0, i32 0
  store i32 265, ptr %57, align 8
  %58 = getelementptr inbounds nuw %struct.PlannerGlobal, ptr %9, i32 0, i32 14
  store ptr null, ptr %58, align 8
  %59 = getelementptr inbounds nuw %struct.PlannerGlobal, ptr %9, i32 0, i32 15
  store ptr null, ptr %59, align 8
  %60 = getelementptr inbounds nuw %struct.PlannerGlobal, ptr %9, i32 0, i32 21
  store i8 0, ptr %60, align 1
  br label %61

61:                                               ; preds = %56
  call void @llvm.lifetime.start.p0(i64 8, ptr %16) #8
  store ptr %10, ptr %16, align 8
  call void @llvm.lifetime.start.p0(i64 4, ptr %17) #8
  store i32 0, ptr %17, align 4
  call void @llvm.lifetime.start.p0(i64 8, ptr %18) #8
  store i64 704, ptr %18, align 8
  %62 = load ptr, ptr %16, align 8
  %63 = ptrtoint ptr %62 to i64
  %64 = and i64 %63, 7
  %65 = icmp eq i64 %64, 0
  br i1 %65, label %66, label %89

66:                                               ; preds = %61
  %67 = load i64, ptr %18, align 8
  %68 = and i64 %67, 7
  %69 = icmp eq i64 %68, 0
  br i1 %69, label %70, label %89

70:                                               ; preds = %66
  %71 = load i32, ptr %17, align 4
  %72 = icmp eq i32 %71, 0
  br i1 %72, label %73, label %89

73:                                               ; preds = %70
  %74 = load i64, ptr %18, align 8
  %75 = icmp ule i64 %74, 1024
  br i1 %75, label %76, label %89

76:                                               ; preds = %73
  call void @llvm.lifetime.start.p0(i64 8, ptr %19) #8
  %77 = load ptr, ptr %16, align 8
  store ptr %77, ptr %19, align 8
  call void @llvm.lifetime.start.p0(i64 8, ptr %20) #8
  %78 = load ptr, ptr %19, align 8
  %79 = load i64, ptr %18, align 8
  %80 = getelementptr inbounds nuw i8, ptr %78, i64 %79
  store ptr %80, ptr %20, align 8
  br label %81

81:                                               ; preds = %85, %76
  %82 = load ptr, ptr %19, align 8
  %83 = load ptr, ptr %20, align 8
  %84 = icmp ult ptr %82, %83
  br i1 %84, label %85, label %88

85:                                               ; preds = %81
  %86 = load ptr, ptr %19, align 8
  %87 = getelementptr inbounds nuw i64, ptr %86, i32 1
  store ptr %87, ptr %19, align 8
  store i64 0, ptr %86, align 8
  br label %81, !llvm.loop !24

88:                                               ; preds = %81
  call void @llvm.lifetime.end.p0(i64 8, ptr %20) #8
  call void @llvm.lifetime.end.p0(i64 8, ptr %19) #8
  br label %94

89:                                               ; preds = %73, %70, %66, %61
  %90 = load ptr, ptr %16, align 8
  %91 = load i32, ptr %17, align 4
  %92 = trunc i32 %91 to i8
  %93 = load i64, ptr %18, align 8
  call void @llvm.memset.p0.i64(ptr align 1 %90, i8 %92, i64 %93, i1 false)
  br label %94

94:                                               ; preds = %89, %88
  call void @llvm.lifetime.end.p0(i64 8, ptr %18) #8
  call void @llvm.lifetime.end.p0(i64 4, ptr %17) #8
  call void @llvm.lifetime.end.p0(i64 8, ptr %16) #8
  br label %95

95:                                               ; preds = %94
  br label %96

96:                                               ; preds = %95
  %97 = getelementptr inbounds nuw %struct.PlannerInfo, ptr %10, i32 0, i32 0
  store i32 266, ptr %97, align 8
  %98 = getelementptr inbounds nuw %struct.PlannerInfo, ptr %10, i32 0, i32 2
  store ptr %9, ptr %98, align 8
  %99 = load ptr, ptr %5, align 8
  %100 = call zeroext i1 @extract_query_dependencies_walker(ptr noundef %99, ptr noundef %10)
  %101 = getelementptr inbounds nuw %struct.PlannerGlobal, ptr %9, i32 0, i32 14
  %102 = load ptr, ptr %101, align 8
  %103 = load ptr, ptr %6, align 8
  store ptr %102, ptr %103, align 8
  %104 = getelementptr inbounds nuw %struct.PlannerGlobal, ptr %9, i32 0, i32 15
  %105 = load ptr, ptr %104, align 8
  %106 = load ptr, ptr %7, align 8
  store ptr %105, ptr %106, align 8
  %107 = getelementptr inbounds nuw %struct.PlannerGlobal, ptr %9, i32 0, i32 21
  %108 = load i8, ptr %107, align 1, !range !7, !noundef !8
  %109 = trunc i8 %108 to i1
  %110 = load ptr, ptr %8, align 8
  %111 = zext i1 %109 to i8
  store i8 %111, ptr %110, align 1
  call void @llvm.lifetime.end.p0(i64 704, ptr %10) #8
  call void @llvm.lifetime.end.p0(i64 168, ptr %9) #8
  ret void
}