; Function Attrs: nounwind uwtable
define dso_local void @extract_query_dependencies(ptr noundef %0, ptr noundef writeonly captures(none) initializes((0, 8)) %1, ptr noundef writeonly captures(none) initializes((0, 8)) %2, ptr noundef writeonly captures(none) initializes((0, 1)) %3) local_unnamed_addr #0 {
  %5 = alloca %struct.PlannerGlobal, align 8
  %6 = alloca %struct.PlannerInfo, align 8
  call void @llvm.lifetime.start.p0(i64 168, ptr nonnull %5) #8
  call void @llvm.lifetime.start.p0(i64 704, ptr nonnull %6) #8
  call void @llvm.memset.p0.i64(ptr noundef nonnull align 8 dereferenceable(168) %5, i8 0, i64 168, i1 false)
  store i32 265, ptr %5, align 8
  %7 = getelementptr inbounds nuw i8, ptr %5, i64 112
  %8 = getelementptr inbounds nuw i8, ptr %5, i64 120
  %9 = getelementptr inbounds nuw i8, ptr %5, i64 149
  call void @llvm.memset.p0.i64(ptr noundef nonnull align 8 dereferenceable(16) %7, i8 0, i64 16, i1 false)
  call void @llvm.memset.p0.i64(ptr noundef nonnull align 8 dereferenceable(704) %6, i8 0, i64 704, i1 false)
  store i32 266, ptr %6, align 8
  %10 = getelementptr inbounds nuw i8, ptr %6, i64 16
  store ptr %5, ptr %10, align 8
  %11 = call zeroext i1 @extract_query_dependencies_walker(ptr noundef %0, ptr noundef nonnull %6)
  %12 = load ptr, ptr %7, align 8
  store ptr %12, ptr %1, align 8
  %13 = load ptr, ptr %8, align 8
  store ptr %13, ptr %2, align 8
  %14 = load i8, ptr %9, align 1, !range !4, !noundef !5
  store i8 %14, ptr %3, align 1
  call void @llvm.lifetime.end.p0(i64 704, ptr nonnull %6) #8
  call void @llvm.lifetime.end.p0(i64 168, ptr nonnull %5) #8
  ret void
}